target datalayout = "e-m:e-p270:32:32-p271:32:32-p272:64:64-i64:64-i128:128-f80:128-n8:16:32:64-S128"
target triple = "x86_64-unknown-linux-gnu"

%struct.CPUArchState = type { [32 x i64], [32 x i64], [512 x i64], i64, i64, i64, i64, i64, i8, i64, i64, i64, [32 x i64], i64, %struct.float_status, i64, i64, i64, i64, i64, i64, i32, i32, i32, i32, i32, i64, i64, i64, i8, i64, i64, i64, i64, i64, i8, i8, i64, i64, i64, i64, i64, i64, i64, i64, i64, i64, i64, i64, i64, i64, i64, [64 x i8], [64 x i8], i64, i64, i64, i64, i64, i64, i64, i64, i64, i64, i64, i64, i64, i64, i64, i64, i64, [64 x i8], i64, i64, i64, i64, i64, i64, i64, i64, i64, i64, i64, i64, i64, i64, i64, i64, i64, i64, i64, i8, i8, i64, i64, i64, [32 x %struct.PMUCTRState], [32 x i64], [32 x i64], i64, i64, i64, i64, %struct.pmp_table_t, i64, i64, [2 x i64], [2 x i64], [2 x i64], [2 x ptr], [2 x ptr], [2 x ptr], i64, i8, ptr, ptr, [4 x ptr], [4 x ptr], i8, i64, i64, i64, i64, i64, i64, i64, i64, [4 x i64], [4 x i64], [4 x i64], i64, i64, i64, i64, ptr, ptr, i8, i64, i64, [8 x i8] }
%struct.float_status = type { i16, i8, i8, i8, i8, i8, i8, i8, i8, i8, i8, i8 }
%struct.PMUCTRState = type { i64, i64, i64, i64, i8, i64 }
%struct.pmp_table_t = type { [16 x %struct.pmp_entry_t], [16 x %struct.pmp_addr_t], i32 }
%struct.pmp_entry_t = type { i64, i8 }
%struct.pmp_addr_t = type { i64, i64 }

@.str = private unnamed_addr constant [29 x i8] c"../qemu/target/riscv/debug.c\00", align 1
@__func__.build_tdata1 = private unnamed_addr constant [13 x i8] c"build_tdata1\00", align 1

; Function Attrs: nounwind sspstrong uwtable
define internal i32 @riscv_cpu_mxl(ptr noundef %env) #0 {
entry:
  %env.addr = alloca ptr, align 8
  store ptr %env, ptr %env.addr, align 8
  %0 = load ptr, ptr %env.addr, align 8
  %misa_mxl = getelementptr inbounds %struct.CPUArchState, ptr %0, i32 0, i32 21
  %1 = load i32, ptr %misa_mxl, align 16
  ret i32 %1
}

; Function Attrs: nounwind sspstrong uwtable
define internal i64 @build_tdata1(ptr noundef %env, i32 noundef %type, i1 noundef zeroext %dmode, i64 noundef %data) #0 {
entry:
  %env.addr = alloca ptr, align 8
  %type.addr = alloca i32, align 4
  %dmode.addr = alloca i8, align 1
  %data.addr = alloca i64, align 8
  %tdata1 = alloca i64, align 8
  store ptr %env, ptr %env.addr, align 8
  store i32 %type, ptr %type.addr, align 4
  %frombool = zext i1 %dmode to i8
  store i8 %frombool, ptr %dmode.addr, align 1
  store i64 %data, ptr %data.addr, align 8
  %0 = load ptr, ptr %env.addr, align 8
  %call = call i32 @riscv_cpu_mxl(ptr noundef %0)
  switch i32 %call, label %sw.default [
    i32 1, label %sw.bb
    i32 2, label %sw.bb3
    i32 3, label %sw.bb3
  ]

sw.bb:                                            ; preds = %entry
  %1 = load i32, ptr %type.addr, align 4
  %shl = shl i32 %1, 28
  %conv = zext i32 %shl to i64
  %2 = load i8, ptr %dmode.addr, align 1
  %tobool = trunc i8 %2 to i1
  %cond = select i1 %tobool, i64 134217728, i64 0
  %or = or i64 %conv, %cond
  %3 = load i64, ptr %data.addr, align 8
  %and = and i64 %3, 134217727
  %or2 = or i64 %or, %and
  store i64 %or2, ptr %tdata1, align 8
  br label %sw.epilog

sw.bb3:                                           ; preds = %entry, %entry
  %4 = load i32, ptr %type.addr, align 4
  %conv4 = zext i32 %4 to i64
  %shl5 = shl i64 %conv4, 60
  %5 = load i8, ptr %dmode.addr, align 1
  %tobool6 = trunc i8 %5 to i1
  %cond8 = select i1 %tobool6, i64 576460752303423488, i64 0
  %or9 = or i64 %shl5, %cond8
  %6 = load i64, ptr %data.addr, align 8
  %and10 = and i64 %6, 576460752303423487
  %or11 = or i64 %or9, %and10
  store i64 %or11, ptr %tdata1, align 8
  br label %sw.epilog

sw.default:                                       ; preds = %entry
  br label %do.body

do.body:                                          ; preds = %sw.default
  call void @g_assertion_message_expr(ptr noundef null, ptr noundef @.str, i32 noundef 149, ptr noundef @__func__.build_tdata1, ptr noundef null) #5
  unreachable

do.end:                                           ; No predecessors!
  br label %sw.epilog

sw.epilog:                                        ; preds = %do.end, %sw.bb3, %sw.bb
  %7 = load i64, ptr %tdata1, align 8
  ret i64 %7
}

; Function Attrs: nounwind sspstrong uwtable
define dso_local void @riscv_trigger_reset_hold(ptr noundef %env) #0 {
entry:
  %env.addr = alloca ptr, align 8
  %tdata1 = alloca i64, align 8
  %i = alloca i32, align 4
  store ptr %env, ptr %env.addr, align 8
  %0 = load ptr, ptr %env.addr, align 8
  %call = call i64 @build_tdata1(ptr noundef %0, i32 noundef 2, i1 noundef zeroext false, i64 noundef 0)
  store i64 %call, ptr %tdata1, align 8
  store i32 0, ptr %i, align 4
  br label %for.cond

for.cond:                                         ; preds = %for.inc, %entry
  %1 = load i32, ptr %i, align 4
  %cmp = icmp slt i32 %1, 2
  br i1 %cmp, label %for.body, label %for.end

for.body:                                         ; preds = %for.cond
  %2 = load i64, ptr %tdata1, align 8
  %3 = load ptr, ptr %env.addr, align 8
  %tdata11 = getelementptr inbounds %struct.CPUArchState, ptr %3, i32 0, i32 106
  %4 = load i32, ptr %i, align 4
  %idxprom = sext i32 %4 to i64
  %arrayidx = getelementptr [2 x i64], ptr %tdata11, i64 0, i64 %idxprom
  store i64 %2, ptr %arrayidx, align 8
  %5 = load ptr, ptr %env.addr, align 8
  %tdata2 = getelementptr inbounds %struct.CPUArchState, ptr %5, i32 0, i32 107
  %6 = load i32, ptr %i, align 4
  %idxprom2 = sext i32 %6 to i64
  %arrayidx3 = getelementptr [2 x i64], ptr %tdata2, i64 0, i64 %idxprom2
  store i64 0, ptr %arrayidx3, align 8
  %7 = load ptr, ptr %env.addr, align 8
  %tdata3 = getelementptr inbounds %struct.CPUArchState, ptr %7, i32 0, i32 108
  %8 = load i32, ptr %i, align 4
  %idxprom4 = sext i32 %8 to i64
  %arrayidx5 = getelementptr [2 x i64], ptr %tdata3, i64 0, i64 %idxprom4
  store i64 0, ptr %arrayidx5, align 8
  %9 = load ptr, ptr %env.addr, align 8
  %cpu_breakpoint = getelementptr inbounds %struct.CPUArchState, ptr %9, i32 0, i32 109
  %10 = load i32, ptr %i, align 4
  %idxprom6 = sext i32 %10 to i64
  %arrayidx7 = getelementptr [2 x ptr], ptr %cpu_breakpoint, i64 0, i64 %idxprom6
  store ptr null, ptr %arrayidx7, align 8
  %11 = load ptr, ptr %env.addr, align 8
  %cpu_watchpoint = getelementptr inbounds %struct.CPUArchState, ptr %11, i32 0, i32 110
  %12 = load i32, ptr %i, align 4
  %idxprom8 = sext i32 %12 to i64
  %arrayidx9 = getelementptr [2 x ptr], ptr %cpu_watchpoint, i64 0, i64 %idxprom8
  store ptr null, ptr %arrayidx9, align 8
  %13 = load ptr, ptr %env.addr, align 8
  %itrigger_timer = getelementptr inbounds %struct.CPUArchState, ptr %13, i32 0, i32 111
  %14 = load i32, ptr %i, align 4
  %idxprom10 = sext i32 %14 to i64
  %arrayidx11 = getelementptr [2 x ptr], ptr %itrigger_timer, i64 0, i64 %idxprom10
  %15 = load ptr, ptr %arrayidx11, align 8
  call void @timer_del(ptr noundef %15)
  br label %for.inc

for.inc:                                          ; preds = %for.body
  %16 = load i32, ptr %i, align 4
  %inc = add i32 %16, 1
  store i32 %inc, ptr %i, align 4
  br label %for.cond, !llvm.loop !14

for.end:                                          ; preds = %for.cond
  ret void
}