; Function Attrs: nounwind sspstrong uwtable
define dso_local void @riscv_trigger_reset_hold(ptr noundef captures(none) %env) local_unnamed_addr #0 {
entry:
  %0 = getelementptr i8, ptr %env, i64 5008
  %env.val = load i32, ptr %0, align 16
  %switch.tableidx = add i32 %env.val, -1
  %1 = icmp ult i32 %switch.tableidx, 3
  br i1 %1, label %switch.lookup, label %do.body.i

do.body.i:                                        ; preds = %entry
  tail call void @g_assertion_message_expr(ptr noundef null, ptr noundef nonnull @.str, i32 noundef 149, ptr noundef nonnull @__func__.build_tdata1, ptr noundef null) #7
  unreachable

switch.lookup:                                    ; preds = %entry
  %2 = zext nneg i32 %switch.tableidx to i64
  %switch.gep = getelementptr inbounds nuw [3 x i64], ptr @switch.table.riscv_trigger_reset_hold, i64 0, i64 %2
  %switch.load = load i64, ptr %switch.gep, align 8
  %tdata11 = getelementptr inbounds nuw i8, ptr %env, i64 8360
  %tdata2 = getelementptr inbounds nuw i8, ptr %env, i64 8376
  %tdata3 = getelementptr inbounds nuw i8, ptr %env, i64 8392
  %cpu_breakpoint = getelementptr inbounds nuw i8, ptr %env, i64 8408
  %cpu_watchpoint = getelementptr inbounds nuw i8, ptr %env, i64 8424
  %itrigger_timer = getelementptr inbounds nuw i8, ptr %env, i64 8440
  br label %for.body

for.body:                                         ; preds = %switch.lookup, %for.body
  %cmp = phi i1 [ true, %switch.lookup ], [ false, %for.body ]
  %indvars.iv = phi i64 [ 0, %switch.lookup ], [ 1, %for.body ]
  %arrayidx = getelementptr [2 x i64], ptr %tdata11, i64 0, i64 %indvars.iv
  store i64 %switch.load, ptr %arrayidx, align 8
  %arrayidx3 = getelementptr [2 x i64], ptr %tdata2, i64 0, i64 %indvars.iv
  store i64 0, ptr %arrayidx3, align 8
  %arrayidx5 = getelementptr [2 x i64], ptr %tdata3, i64 0, i64 %indvars.iv
  store i64 0, ptr %arrayidx5, align 8
  %arrayidx7 = getelementptr [2 x ptr], ptr %cpu_breakpoint, i64 0, i64 %indvars.iv
  store ptr null, ptr %arrayidx7, align 8
  %arrayidx9 = getelementptr [2 x ptr], ptr %cpu_watchpoint, i64 0, i64 %indvars.iv
  store ptr null, ptr %arrayidx9, align 8
  %arrayidx11 = getelementptr [2 x ptr], ptr %itrigger_timer, i64 0, i64 %indvars.iv
  %3 = load ptr, ptr %arrayidx11, align 8
  tail call void @timer_del(ptr noundef %3) #8
  br i1 %cmp, label %for.body, label %for.end, !llvm.loop !13

for.end:                                          ; preds = %for.body
  ret void
}